target datalayout = "e-m:e-p270:32:32-p271:32:32-p272:64:64-i64:64-i128:128-f80:128-n8:16:32:64-S128"
target triple = "x86_64-pc-linux-gnu"

; Function Attrs: mustprogress nounwind uwtable
define internal noundef i64 @_ZN4llvm6objectL12resolveRISCVEmmmml(i64 noundef %0, i64 noundef %1, i64 noundef %2, i64 noundef %3, i64 noundef %4) #0 {
  %6 = alloca i64, align 8
  %7 = alloca i64, align 8
  %8 = alloca i64, align 8
  %9 = alloca i64, align 8
  %10 = alloca i64, align 8
  %11 = alloca i64, align 8
  %12 = alloca i64, align 8
  %13 = alloca i64, align 8
  store i64 %0, ptr %7, align 8
  store i64 %1, ptr %8, align 8
  store i64 %2, ptr %9, align 8
  store i64 %3, ptr %10, align 8
  store i64 %4, ptr %11, align 8
  %14 = load i64, ptr %11, align 8
  store i64 %14, ptr %12, align 8
  %15 = load i64, ptr %10, align 8
  store i64 %15, ptr %13, align 8
  %16 = load i64, ptr %7, align 8
  switch i64 %16, label %123 [
    i64 0, label %17
    i64 1, label %19
    i64 57, label %24
    i64 2, label %31
    i64 53, label %35
    i64 52, label %43
    i64 54, label %54
    i64 33, label %59
    i64 37, label %66
    i64 55, label %73
    i64 34, label %78
    i64 38, label %85
    i64 56, label %92
    i64 35, label %97
    i64 39, label %104
    i64 36, label %111
    i64 40, label %117
  ]

17:                                               ; preds = %5
  %18 = load i64, ptr %10, align 8
  store i64 %18, ptr %6, align 8
  br label %124

19:                                               ; preds = %5
  %20 = load i64, ptr %9, align 8
  %21 = load i64, ptr %12, align 8
  %22 = add i64 %20, %21
  %23 = and i64 %22, 4294967295
  store i64 %23, ptr %6, align 8
  br label %124

24:                                               ; preds = %5
  %25 = load i64, ptr %9, align 8
  %26 = load i64, ptr %12, align 8
  %27 = add i64 %25, %26
  %28 = load i64, ptr %8, align 8
  %29 = sub i64 %27, %28
  %30 = and i64 %29, 4294967295
  store i64 %30, ptr %6, align 8
  br label %124

31:                                               ; preds = %5
  %32 = load i64, ptr %9, align 8
  %33 = load i64, ptr %12, align 8
  %34 = add i64 %32, %33
  store i64 %34, ptr %6, align 8
  br label %124

35:                                               ; preds = %5
  %36 = load i64, ptr %13, align 8
  %37 = and i64 %36, 192
  %38 = load i64, ptr %9, align 8
  %39 = load i64, ptr %12, align 8
  %40 = add i64 %38, %39
  %41 = and i64 %40, 63
  %42 = or i64 %37, %41
  store i64 %42, ptr %6, align 8
  br label %124

43:                                               ; preds = %5
  %44 = load i64, ptr %13, align 8
  %45 = and i64 %44, 192
  %46 = load i64, ptr %13, align 8
  %47 = and i64 %46, 63
  %48 = load i64, ptr %9, align 8
  %49 = load i64, ptr %12, align 8
  %50 = add i64 %48, %49
  %51 = sub i64 %47, %50
  %52 = and i64 %51, 63
  %53 = or i64 %45, %52
  store i64 %53, ptr %6, align 8
  br label %124

54:                                               ; preds = %5
  %55 = load i64, ptr %9, align 8
  %56 = load i64, ptr %12, align 8
  %57 = add i64 %55, %56
  %58 = and i64 %57, 255
  store i64 %58, ptr %6, align 8
  br label %124

59:                                               ; preds = %5
  %60 = load i64, ptr %13, align 8
  %61 = load i64, ptr %9, align 8
  %62 = load i64, ptr %12, align 8
  %63 = add i64 %61, %62
  %64 = add i64 %60, %63
  %65 = and i64 %64, 255
  store i64 %65, ptr %6, align 8
  br label %124

66:                                               ; preds = %5
  %67 = load i64, ptr %13, align 8
  %68 = load i64, ptr %9, align 8
  %69 = load i64, ptr %12, align 8
  %70 = add i64 %68, %69
  %71 = sub i64 %67, %70
  %72 = and i64 %71, 255
  store i64 %72, ptr %6, align 8
  br label %124

73:                                               ; preds = %5
  %74 = load i64, ptr %9, align 8
  %75 = load i64, ptr %12, align 8
  %76 = add i64 %74, %75
  %77 = and i64 %76, 65535
  store i64 %77, ptr %6, align 8
  br label %124

78:                                               ; preds = %5
  %79 = load i64, ptr %13, align 8
  %80 = load i64, ptr %9, align 8
  %81 = load i64, ptr %12, align 8
  %82 = add i64 %80, %81
  %83 = add i64 %79, %82
  %84 = and i64 %83, 65535
  store i64 %84, ptr %6, align 8
  br label %124

85:                                               ; preds = %5
  %86 = load i64, ptr %13, align 8
  %87 = load i64, ptr %9, align 8
  %88 = load i64, ptr %12, align 8
  %89 = add i64 %87, %88
  %90 = sub i64 %86, %89
  %91 = and i64 %90, 65535
  store i64 %91, ptr %6, align 8
  br label %124

92:                                               ; preds = %5
  %93 = load i64, ptr %9, align 8
  %94 = load i64, ptr %12, align 8
  %95 = add i64 %93, %94
  %96 = and i64 %95, 4294967295
  store i64 %96, ptr %6, align 8
  br label %124

97:                                               ; preds = %5
  %98 = load i64, ptr %13, align 8
  %99 = load i64, ptr %9, align 8
  %100 = load i64, ptr %12, align 8
  %101 = add i64 %99, %100
  %102 = add i64 %98, %101
  %103 = and i64 %102, 4294967295
  store i64 %103, ptr %6, align 8
  br label %124

104:                                              ; preds = %5
  %105 = load i64, ptr %13, align 8
  %106 = load i64, ptr %9, align 8
  %107 = load i64, ptr %12, align 8
  %108 = add i64 %106, %107
  %109 = sub i64 %105, %108
  %110 = and i64 %109, 4294967295
  store i64 %110, ptr %6, align 8
  br label %124

111:                                              ; preds = %5
  %112 = load i64, ptr %13, align 8
  %113 = load i64, ptr %9, align 8
  %114 = load i64, ptr %12, align 8
  %115 = add i64 %113, %114
  %116 = add i64 %112, %115
  store i64 %116, ptr %6, align 8
  br label %124

117:                                              ; preds = %5
  %118 = load i64, ptr %13, align 8
  %119 = load i64, ptr %9, align 8
  %120 = load i64, ptr %12, align 8
  %121 = add i64 %119, %120
  %122 = sub i64 %118, %121
  store i64 %122, ptr %6, align 8
  br label %124

123:                                              ; preds = %5
  unreachable

124:                                              ; preds = %117, %111, %104, %97, %92, %85, %78, %73, %66, %59, %54, %43, %35, %31, %24, %19, %17
  %125 = load i64, ptr %6, align 8
  ret i64 %125
}