; Function Attrs: mustprogress nofree norecurse nosync nounwind willreturn memory(none) uwtable
define internal noundef i64 @_ZN4llvm6objectL12resolveRISCVEmmmml(i64 noundef %0, i64 noundef %1, i64 noundef %2, i64 noundef %3, i64 noundef %4) #1 {
  switch i64 %0, label %65 [
    i64 0, label %66
    i64 1, label %6
    i64 57, label %9
    i64 2, label %13
    i64 53, label %15
    i64 52, label %20
    i64 54, label %26
    i64 33, label %29
    i64 37, label %33
    i64 55, label %37
    i64 34, label %40
    i64 38, label %44
    i64 56, label %48
    i64 35, label %51
    i64 39, label %55
    i64 36, label %59
    i64 40, label %62
  ]

6:                                                ; preds = %5
  %7 = add i64 %4, %2
  %8 = and i64 %7, 4294967295
  br label %66

9:                                                ; preds = %5
  %10 = add i64 %4, %2
  %11 = sub i64 %10, %1
  %12 = and i64 %11, 4294967295
  br label %66

13:                                               ; preds = %5
  %14 = add i64 %4, %2
  br label %66

15:                                               ; preds = %5
  %16 = and i64 %3, 192
  %17 = add i64 %4, %2
  %18 = and i64 %17, 63
  %19 = or disjoint i64 %18, %16
  br label %66

20:                                               ; preds = %5
  %21 = and i64 %3, 192
  %22 = add i64 %2, %4
  %23 = sub i64 %3, %22
  %24 = and i64 %23, 63
  %25 = or disjoint i64 %24, %21
  br label %66

26:                                               ; preds = %5
  %27 = add i64 %4, %2
  %28 = and i64 %27, 255
  br label %66

29:                                               ; preds = %5
  %30 = add i64 %4, %2
  %31 = add i64 %30, %3
  %32 = and i64 %31, 255
  br label %66

33:                                               ; preds = %5
  %34 = add i64 %2, %4
  %35 = sub i64 %3, %34
  %36 = and i64 %35, 255
  br label %66

37:                                               ; preds = %5
  %38 = add i64 %4, %2
  %39 = and i64 %38, 65535
  br label %66

40:                                               ; preds = %5
  %41 = add i64 %4, %2
  %42 = add i64 %41, %3
  %43 = and i64 %42, 65535
  br label %66

44:                                               ; preds = %5
  %45 = add i64 %2, %4
  %46 = sub i64 %3, %45
  %47 = and i64 %46, 65535
  br label %66

48:                                               ; preds = %5
  %49 = add i64 %4, %2
  %50 = and i64 %49, 4294967295
  br label %66

51:                                               ; preds = %5
  %52 = add i64 %4, %2
  %53 = add i64 %52, %3
  %54 = and i64 %53, 4294967295
  br label %66

55:                                               ; preds = %5
  %56 = add i64 %2, %4
  %57 = sub i64 %3, %56
  %58 = and i64 %57, 4294967295
  br label %66

59:                                               ; preds = %5
  %60 = add i64 %4, %2
  %61 = add i64 %60, %3
  br label %66

62:                                               ; preds = %5
  %63 = add i64 %2, %4
  %64 = sub i64 %3, %63
  br label %66

65:                                               ; preds = %5
  unreachable

66:                                               ; preds = %5, %62, %59, %55, %51, %48, %44, %40, %37, %33, %29, %26, %20, %15, %13, %9, %6
  %.0 = phi i64 [ %64, %62 ], [ %61, %59 ], [ %58, %55 ], [ %54, %51 ], [ %50, %48 ], [ %47, %44 ], [ %43, %40 ], [ %39, %37 ], [ %36, %33 ], [ %32, %29 ], [ %28, %26 ], [ %25, %20 ], [ %19, %15 ], [ %14, %13 ], [ %12, %9 ], [ %8, %6 ], [ %3, %5 ]
  ret i64 %.0
}